; Function Attrs: mustprogress uwtable
define void @_Z29mergeAtomAndBondModificationsRK21MoleculePatchDatabasePS_(ptr nocapture noundef nonnull readonly align 8 dereferenceable(280) %0, ptr noundef %1) local_unnamed_addr #2 {
  %3 = getelementptr inbounds i8, ptr %0, i64 64
  %4 = load ptr, ptr %3, align 8
  %5 = getelementptr inbounds i8, ptr %0, i64 72
  %6 = load ptr, ptr %5, align 8
  %.not8.i = icmp eq ptr %4, %6
  br i1 %.not8.i, label %_Z22mergeAtomModificationsRK21MoleculePatchDatabasePS_.exit, label %.lr.ph.i

.lr.ph.i:                                         ; preds = %2
  %7 = getelementptr inbounds i8, ptr %1, i64 72
  %8 = getelementptr inbounds i8, ptr %1, i64 80
  %9 = getelementptr inbounds i8, ptr %1, i64 64
  br label %10

10:                                               ; preds = %_ZNSt6vectorI13MoleculePatchSaIS0_EE9push_backERKS0_.exit.i, %.lr.ph.i
  %.sroa.05.09.i = phi ptr [ %4, %.lr.ph.i ], [ %17, %_ZNSt6vectorI13MoleculePatchSaIS0_EE9push_backERKS0_.exit.i ]
  %11 = load ptr, ptr %7, align 8
  %12 = load ptr, ptr %8, align 8
  %.not.i.i = icmp eq ptr %11, %12
  br i1 %.not.i.i, label %16, label %13

13:                                               ; preds = %10
  tail call void @_ZN13MoleculePatchC2ERKS_(ptr noundef nonnull align 8 dereferenceable(256) %11, ptr noundef nonnull align 8 dereferenceable(256) %.sroa.05.09.i)
  %14 = load ptr, ptr %7, align 8
  %15 = getelementptr inbounds i8, ptr %14, i64 256
  store ptr %15, ptr %7, align 8
  br label %_ZNSt6vectorI13MoleculePatchSaIS0_EE9push_backERKS0_.exit.i

16:                                               ; preds = %10
  tail call void @_ZNSt6vectorI13MoleculePatchSaIS0_EE17_M_realloc_insertIJRKS0_EEEvN9__gnu_cxx17__normal_iteratorIPS0_S2_EEDpOT_(ptr noundef nonnull align 8 dereferenceable(24) %9, ptr %11, ptr noundef nonnull align 8 dereferenceable(256) %.sroa.05.09.i)
  br label %_ZNSt6vectorI13MoleculePatchSaIS0_EE9push_backERKS0_.exit.i

_ZNSt6vectorI13MoleculePatchSaIS0_EE9push_backERKS0_.exit.i: ; preds = %16, %13
  %17 = getelementptr inbounds i8, ptr %.sroa.05.09.i, i64 256
  %.not.i = icmp eq ptr %17, %6
  br i1 %.not.i, label %_Z22mergeAtomModificationsRK21MoleculePatchDatabasePS_.exit, label %10

_Z22mergeAtomModificationsRK21MoleculePatchDatabasePS_.exit: ; preds = %_ZNSt6vectorI13MoleculePatchSaIS0_EE9push_backERKS0_.exit.i, %2
  %18 = getelementptr inbounds i8, ptr %0, i64 88
  %19 = getelementptr inbounds i8, ptr %1, i64 88
  %20 = tail call noundef zeroext i1 @_Z26mergeBondedInteractionListN3gmx8ArrayRefIK21BondedInteractionListEENS0_IS1_EEbb(ptr nonnull %18, ptr nonnull poison, ptr nonnull %19, ptr nonnull poison, i1 noundef zeroext false, i1 noundef zeroext false)
  ret void
}